; Function Attrs: nofree nosync nounwind memory(read, inaccessiblemem: none) uwtable
define internal fastcc void @dump_tree_core(ptr noundef captures(none) %0, i32 noundef %1) unnamed_addr #5 {
  %.not = icmp eq ptr %0, null
  br i1 %.not, label %.loopexit, label %3

3:                                                ; preds = %2
  %4 = getelementptr inbounds nuw i8, ptr %0, i64 16
  %5 = load ptr, ptr %4, align 8, !tbaa !37
  %.not10 = icmp eq ptr %5, null
  br i1 %.not10, label %.loopexit, label %6

6:                                                ; preds = %3
  %7 = getelementptr inbounds nuw i8, ptr %5, i64 64
  %8 = load i16, ptr %7, align 8, !tbaa !38
  %.not11 = icmp eq i16 %8, 0
  br i1 %.not11, label %.loopexit, label %.preheader

.preheader:                                       ; preds = %6
  %9 = load ptr, ptr %5, align 8, !tbaa !42
  %10 = add nsw i32 %1, 1
  %wide.trip.count = zext i16 %8 to i64
  br label %lv_obj_get_child.exit

lv_obj_get_child.exit:                            ; preds = %.preheader, %lv_obj_get_child.exit
  %indvars.iv = phi i64 [ 0, %.preheader ], [ %indvars.iv.next, %lv_obj_get_child.exit ]
  %11 = getelementptr inbounds nuw ptr, ptr %9, i64 %indvars.iv
  %12 = load ptr, ptr %11, align 8, !tbaa !33
  tail call fastcc void @dump_tree_core(ptr noundef %12, i32 noundef %10)
  %indvars.iv.next = add nuw nsw i64 %indvars.iv, 1
  %exitcond.not = icmp eq i64 %indvars.iv.next, %wide.trip.count
  br i1 %exitcond.not, label %.loopexit, label %lv_obj_get_child.exit, !llvm.loop !78

.loopexit:                                        ; preds = %lv_obj_get_child.exit, %6, %3, %2
  ret void
}